Certificate:
    Data:
        Version: 3 (0x2)
        Serial Number: 0 (0x0)
        Signature Algorithm: sha256WithRSAEncryption
        Issuer: O=OK2 Consulting GmbH, OU=HttpClient Android Extensions, CN=Test CA/emailAddress=olegk@apache.org
        Validity
            Not Before: Oct 24 07:40:44 2024 GMT
            Not After : Sep 30 07:40:44 2124 GMT
        Subject: O=OK2 Consulting GmbH, OU=HttpClient Android Extensions, CN=localhost/emailAddress=olegk@apache.org
        Subject Public Key Info:
            Public Key Algorithm: rsaEncryption
                Public-Key: (2048 bit)
                Modulus:
                    00:b6:c8:18:69:04:4f:33:b6:ed:09:25:92:4d:b3:
                    17:1c:ab:7c:c0:ba:53:23:2b:6d:49:2a:46:93:70:
                    12:a9:7e:72:c1:2e:77:8f:23:68:6b:c3:ed:c6:2b:
                    58:f6:7c:0d:9b:84:d2:44:1a:5d:79:ad:23:bc:8a:
                    94:7a:8d:9d:51:73:f6:55:6c:8b:c1:ea:ca:8d:b0:
                    6e:1b:d7:ac:f6:a1:da:f8:52:35:d5:ac:35:cc:e8:
                    02:e9:2d:a7:fd:17:e0:06:bc:df:1b:12:f1:89:27:
                    1e:14:cb:e7:21:04:15:8b:28:fc:7a:2e:f2:54:01:
                    6b:77:44:ee:ee:1e:bf:4b:51:1f:55:68:45:41:3a:
                    17:ed:19:3f:a3:6e:af:04:35:4a:a0:d6:94:6d:91:
                    9b:41:ff:67:a5:0c:43:4c:31:49:7d:5a:60:cb:ed:
                    d0:ac:29:95:90:ed:b3:aa:0a:a8:89:62:c3:07:86:
                    ca:96:f8:d1:d6:42:1b:71:34:5d:e5:b1:c0:27:a8:
                    70:ab:f8:56:af:f5:99:03:43:0a:09:23:22:9b:76:
                    eb:5e:f7:90:b1:b3:eb:23:9e:ff:e8:37:7f:f1:81:
                    ef:59:c3:df:ee:e7:fb:ea:02:c0:a2:55:e9:2d:6c:
                    f0:cb:a4:35:91:9c:f5:9d:66:46:2e:3e:83:3a:7d:
                    54:8f
                Exponent: 65537 (0x10001)
        X509v3 extensions:
            X509v3 Basic Constraints: 
                CA:FALSE
            Netscape Comment: 
                OpenSSL Generated Certificate
            X509v3 Subject Key Identifier: 
                4A:D3:8E:CC:A8:6F:5F:C1:A8:2C:0B:13:EB:A1:8F:46:E4:3B:1B:E4
            X509v3 Authority Key Identifier: 
                41:1D:4F:ED:FF:05:AC:AD:8C:29:A7:CB:B3:D6:E5:29:AE:C5:33:50
            X509v3 Subject Alternative Name: 
                DNS:localhost, IP Address:172.20.0.3
    Signature Algorithm: sha256WithRSAEncryption
    Signature Value:
        26:d7:98:47:9e:fc:0c:bf:7b:d2:3e:bb:85:ec:bb:80:cf:f6:
        a7:f9:92:c1:ac:82:1f:4d:26:ac:f4:4a:00:31:a6:87:0e:33:
        a5:36:01:44:ea:11:11:19:9d:d3:24:5a:65:91:21:1b:a0:11:
        79:86:ef:37:bc:3d:3e:37:b6:2e:e9:96:2d:4c:f1:7c:55:33:
        c2:c7:3c:32:d9:9c:10:73:12:65:16:6d:5d:fd:e9:cc:12:e6:
        35:4f:d7:25:ae:23:fa:e7:a1:a1:1d:e8:71:f4:7b:8f:c8:da:
        28:07:e4:45:39:3c:11:d1:93:68:c8:cb:23:47:a0:6f:2d:df:
        90:12:c6:92:87:8b:42:75:46:4c:70:1a:be:3d:28:b9:39:e2:
        41:50:40:c5:f0:66:ca:83:d4:13:89:9b:66:70:57:4f:73:de:
        c5:33:db:e7:a2:e1:6e:fd:2b:54:07:aa:4f:c2:3c:57:b0:ef:
        0a:7e:5f:c0:55:b9:31:51:9e:ed:88:a5:79:27:b2:a3:ce:14:
        b1:45:55:8e:18:43:cc:6e:d8:7c:6b:e2:2b:f0:c6:d4:e2:ab:
        91:12:99:39:52:ca:a3:ee:5a:5d:b6:66:39:7c:f1:f7:bd:85:
        5a:32:ae:80:3b:cf:f7:9a:d4:97:79:b7:cc:ed:2f:a1:8a:48:
        4b:c7:04:24:8e:eb:fb:9f:68:7c:c1:69:58:6d:e2:9c:5b:d7:
        a6:cf:c9:2f:c4:a7:31:fc:8b:ca:85:94:f7:37:a5:e6:3a:10:
        60:d3:95:e7:0e:0d:d4:f0:66:e4:f6:24:c4:c8:25:68:38:3b:
        b6:d9:bc:31:5b:7f:e0:f7:7f:d9:9f:57:71:75:24:e5:ea:b9:
        c3:5c:7f:dc:ea:6f:03:dc:54:7c:f9:16:87:ce:99:ed:5a:a4:
        b8:2e:03:81:4b:99:0f:8f:7e:28:5b:ae:90:35:d5:f1:86:a9:
        13:55:d3:17:eb:6b:ff:5f:be:b6:75:db:18:04:90:4c:5a:bb:
        33:32:94:fd:fd:c8:8c:e1:cf:96:8f:cc:af:66:17:76:44:53:
        b2:c0:9a:70:34:b5:16:d0:a4:f4:c6:ab:2b:81:48:8f:0f:85:
        1d:45:31:1c:38:4e:7f:6d:06:68:27:46:54:e4:e9:1c:96:c5:
        4c:96:03:0c:05:a0:9c:22:99:fe:38:2f:70:5c:21:ba:c1:95:
        73:c0:c6:d3:33:62:5b:5a:62:38:b3:81:69:6e:49:b7:dd:da:
        47:b1:b5:f0:06:af:8d:36:9f:1c:f5:34:42:15:10:3e:13:95:
        0a:c6:ec:36:a8:d4:d2:c0:09:6b:cc:a0:4a:8a:3f:02:a8:da:
        74:d9:b1:5c:80:4e:c6:fd
-----BEGIN CERTIFICATE-----
MIIFCjCCAvKgAwIBAgIBADANBgkqhkiG9w0BAQsFADB5MRwwGgYDVQQKDBNPSzIg
Q29uc3VsdGluZyBHbWJIMSYwJAYDVQQLDB1IdHRwQ2xpZW50IEFuZHJvaWQgRXh0
ZW5zaW9uczEQMA4GA1UEAwwHVGVzdCBDQTEfMB0GCSqGSIb3DQEJARYQb2xlZ2tA
YXBhY2hlLm9yZzAgFw0yNDEwMjQwNzQwNDRaGA8yMTI0MDkzMDA3NDA0NFowezEc
MBoGA1UECgwTT0syIENvbnN1bHRpbmcgR21iSDEmMCQGA1UECwwdSHR0cENsaWVu
dCBBbmRyb2lkIEV4dGVuc2lvbnMxEjAQBgNVBAMMCWxvY2FsaG9zdDEfMB0GCSqG
SIb3DQEJARYQb2xlZ2tAYXBhY2hlLm9yZzCCASIwDQYJKoZIhvcNAQEBBQADggEP
ADCCAQoCggEBALbIGGkETzO27Qklkk2zFxyrfMC6UyMrbUkqRpNwEql+csEud48j
aGvD7cYrWPZ8DZuE0kQaXXmtI7yKlHqNnVFz9lVsi8Hqyo2wbhvXrPah2vhSNdWs
NczoAuktp/0X4Aa83xsS8YknHhTL5yEEFYso/Hou8lQBa3dE7u4ev0tRH1VoRUE6
F+0ZP6NurwQ1SqDWlG2Rm0H/Z6UMQ0wxSX1aYMvt0KwplZDts6oKqIliwweGypb4
0dZCG3E0XeWxwCeocKv4Vq/1mQNDCgkjIpt26173kLGz6yOe/+g3f/GB71nD3+7n
++oCwKJV6S1s8MukNZGc9Z1mRi4+gzp9VI8CAwEAAaOBmDCBlTAJBgNVHRMEAjAA
MCwGCWCGSAGG+EIBDQQfFh1PcGVuU1NMIEdlbmVyYXRlZCBDZXJ0aWZpY2F0ZTAd
BgNVHQ4EFgQUStOOzKhvX8GoLAsT66GPRuQ7G+QwHwYDVR0jBBgwFoAUQR1P7f8F
rK2MKafLs9blKa7FM1AwGgYDVR0RBBMwEYIJbG9jYWxob3N0hwSsFAADMA0GCSqG
SIb3DQEBCwUAA4ICAQAm15hHnvwMv3vSPruF7LuAz/an+ZLBrIIfTSas9EoAMaaH
DjOlNgFE6hERGZ3TJFplkSEboBF5hu83vD0+N7Yu6ZYtTPF8VTPCxzwy2ZwQcxJl
Fm1d/enMEuY1T9clriP656GhHehx9HuPyNooB+RFOTwR0ZNoyMsjR6BvLd+QEsaS
h4tCdUZMcBq+PSi5OeJBUEDF8GbKg9QTiZtmcFdPc97FM9vnouFu/StUB6pPwjxX
sO8Kfl/AVbkxUZ7tiKV5J7KjzhSxRVWOGEPMbth8a+Ir8MbU4quREpk5Usqj7lpd
tmY5fPH3vYVaMq6AO8/3mtSXebfM7S+hikhLxwQkjuv7n2h8wWlYbeKcW9emz8kv
xKcx/IvKhZT3N6XmOhBg05XnDg3U8Gbk9iTEyCVoODu22bwxW3/g93/Zn1dxdSTl
6rnDXH/c6m8D3FR8+RaHzpntWqS4LgOBS5kPj34oW66QNdXxhqkTVdMX62v/X762
ddsYBJBMWrszMpT9/ciM4c+Wj8yvZhd2RFOywJpwNLUW0KT0xqsrgUiPD4UdRTEc
OE5/bQZoJ0ZU5OkclsVMlgMMBaCcIpn+OC9wXCG6wZVzwMbTM2JbWmI4s4Fpbkm3
3dpHsbXwBq+NNp8c9TRCFRA+E5UKxuw2qNTSwAlrzKBKij8CqNp02bFcgE7G/Q==
-----END CERTIFICATE-----
